target datalayout = "e-m:e-p270:32:32-p271:32:32-p272:64:64-i64:64-i128:128-f80:128-n8:16:32:64-S128"
target triple = "x86_64-pc-linux-gnu"

%struct.ident_t = type { i32, i32, i32, i32, ptr }
%"class.ncnn::Requantize" = type { %"class.ncnn::Layer", i32, i32, i32, i32, %"class.ncnn::Mat", %"class.ncnn::Mat", %"class.ncnn::Mat", %"class.ncnn::Mat" }
%"class.ncnn::Layer" = type { ptr, i8, i8, i8, i8, i8, i8, i8, i8, i8, i8, i8, i8, i8, i8, i8, i8, i8, i8, i8, i8, i32, ptr, i32, %"class.std::__cxx11::basic_string", %"class.std::__cxx11::basic_string", %"class.std::vector", %"class.std::vector", %"class.std::vector.3", %"class.std::vector.3" }
%"class.std::__cxx11::basic_string" = type { %"struct.std::__cxx11::basic_string<char>::_Alloc_hider", i64, %union.anon }
%"struct.std::__cxx11::basic_string<char>::_Alloc_hider" = type { ptr }
%union.anon = type { i64, [8 x i8] }
%"class.std::vector" = type { %"struct.std::_Vector_base" }
%"struct.std::_Vector_base" = type { %"struct.std::_Vector_base<int, std::allocator<int>>::_Vector_impl" }
%"struct.std::_Vector_base<int, std::allocator<int>>::_Vector_impl" = type { %"struct.std::_Vector_base<int, std::allocator<int>>::_Vector_impl_data" }
%"struct.std::_Vector_base<int, std::allocator<int>>::_Vector_impl_data" = type { ptr, ptr, ptr }
%"class.std::vector.3" = type { %"struct.std::_Vector_base.4" }
%"struct.std::_Vector_base.4" = type { %"struct.std::_Vector_base<ncnn::Mat, std::allocator<ncnn::Mat>>::_Vector_impl" }
%"struct.std::_Vector_base<ncnn::Mat, std::allocator<ncnn::Mat>>::_Vector_impl" = type { %"struct.std::_Vector_base<ncnn::Mat, std::allocator<ncnn::Mat>>::_Vector_impl_data" }
%"struct.std::_Vector_base<ncnn::Mat, std::allocator<ncnn::Mat>>::_Vector_impl_data" = type { ptr, ptr, ptr }
%"class.ncnn::Mat" = type { ptr, ptr, i64, i32, ptr, i32, i32, i32, i32, i32, i64 }

@1 = private unnamed_addr constant %struct.ident_t { i32 0, i32 514, i32 0, i32 22, ptr @0 }, align 8

; Function Attrs: noinline noreturn nounwind uwtable
define linkonce_odr hidden void @__clang_call_terminate(ptr noundef %0) #8 comdat {
  %2 = call ptr @__cxa_begin_catch(ptr %0) #6
  call void @_ZSt9terminatev() #26
  unreachable
}

; Function Attrs: inlinehint mustprogress nounwind uwtable
define linkonce_odr noundef nonnull align 4 dereferenceable(4) ptr @_ZSt3minIiERKT_S2_S2_(ptr noundef nonnull align 4 dereferenceable(4) %0, ptr noundef nonnull align 4 dereferenceable(4) %1) #0 comdat {
  %3 = alloca ptr, align 8
  %4 = alloca ptr, align 8
  %5 = alloca ptr, align 8
  store ptr %0, ptr %4, align 8, !tbaa !47
  store ptr %1, ptr %5, align 8, !tbaa !47
  %6 = load ptr, ptr %5, align 8, !tbaa !47
  %7 = load i32, ptr %6, align 4, !tbaa !23
  %8 = load ptr, ptr %4, align 8, !tbaa !47
  %9 = load i32, ptr %8, align 4, !tbaa !23
  %10 = icmp slt i32 %7, %9
  br i1 %10, label %11, label %13

11:                                               ; preds = %2
  %12 = load ptr, ptr %5, align 8, !tbaa !47
  store ptr %12, ptr %3, align 8
  br label %15

13:                                               ; preds = %2
  %14 = load ptr, ptr %4, align 8, !tbaa !47
  store ptr %14, ptr %3, align 8
  br label %15

15:                                               ; preds = %13, %11
  %16 = load ptr, ptr %3, align 8
  ret ptr %16
}

; Function Attrs: alwaysinline mustprogress nounwind uwtable
define linkonce_odr hidden noundef ptr @_ZN4ncnn3MatcvPT_IaEEv(ptr noundef nonnull align 8 dereferenceable(72) %0) #7 comdat align 2 {
  %2 = alloca ptr, align 8
  store ptr %0, ptr %2, align 8, !tbaa !13
  %3 = load ptr, ptr %2, align 8
  %4 = getelementptr inbounds nuw %"class.ncnn::Mat", ptr %3, i32 0, i32 0
  %5 = load ptr, ptr %4, align 8, !tbaa !46
  ret ptr %5
}

; Function Attrs: alwaysinline mustprogress nounwind uwtable
define linkonce_odr hidden noundef ptr @_ZNK4ncnn3MatcvPKT_IiEEv(ptr noundef nonnull align 8 dereferenceable(72) %0) #7 comdat align 2 {
  %2 = alloca ptr, align 8
  store ptr %0, ptr %2, align 8, !tbaa !13
  %3 = load ptr, ptr %2, align 8
  %4 = getelementptr inbounds nuw %"class.ncnn::Mat", ptr %3, i32 0, i32 0
  %5 = load ptr, ptr %4, align 8, !tbaa !46
  ret ptr %5
}

; Function Attrs: alwaysinline norecurse nounwind uwtable
define internal void @_ZNK4ncnn21Requantize_x86_avx5127forwardERKNS_3MatERS1_RKNS_6OptionE.omp_outlined(ptr noalias noundef %0, ptr noalias noundef %1, ptr noundef nonnull align 4 dereferenceable(4) %2, ptr noundef nonnull align 4 dereferenceable(4) %3, ptr noundef nonnull align 8 dereferenceable(72) %4, ptr noundef nonnull align 4 dereferenceable(4) %5, ptr noundef nonnull align 8 dereferenceable(72) %6, ptr noundef nonnull align 4 dereferenceable(4) %7, ptr noundef %8) #5 personality ptr @__gxx_personality_v0 {
  %10 = alloca ptr, align 8
  %11 = alloca ptr, align 8
  %12 = alloca ptr, align 8
  %13 = alloca ptr, align 8
  %14 = alloca ptr, align 8
  %15 = alloca ptr, align 8
  %16 = alloca ptr, align 8
  %17 = alloca ptr, align 8
  %18 = alloca ptr, align 8
  %19 = alloca ptr, align 8
  %20 = alloca ptr, align 8
  %21 = alloca i32, align 4
  %22 = alloca i32, align 4
  %23 = alloca i32, align 4
  %24 = alloca i32, align 4
  %25 = alloca i32, align 4
  %26 = alloca i32, align 4
  %27 = alloca i32, align 4
  %28 = alloca i32, align 4
  %29 = alloca i32, align 4
  %30 = alloca i32, align 4
  %31 = alloca ptr, align 8
  %32 = alloca ptr, align 8
  %33 = alloca i32, align 4
  %34 = alloca i32, align 4
  store ptr %0, ptr %10, align 8, !tbaa !47
  store ptr %1, ptr %11, align 8, !tbaa !47
  store ptr %2, ptr %12, align 8, !tbaa !47
  store ptr %3, ptr %13, align 8, !tbaa !47
  store ptr %4, ptr %14, align 8, !tbaa !13
  store ptr %5, ptr %15, align 8, !tbaa !47
  store ptr %6, ptr %16, align 8, !tbaa !13
  store ptr %7, ptr %17, align 8, !tbaa !47
  store ptr %8, ptr %18, align 8, !tbaa !11
  %35 = load ptr, ptr %12, align 8, !tbaa !47
  %36 = load ptr, ptr %13, align 8, !tbaa !47
  %37 = load ptr, ptr %14, align 8, !tbaa !13
  %38 = load ptr, ptr %15, align 8, !tbaa !47
  %39 = load ptr, ptr %16, align 8, !tbaa !13
  %40 = load ptr, ptr %17, align 8, !tbaa !47
  %41 = load ptr, ptr %18, align 8, !tbaa !11
  store ptr %37, ptr %19, align 8
  store ptr %39, ptr %20, align 8
  call void @llvm.lifetime.start.p0(i64 4, ptr %21) #6
  call void @llvm.lifetime.start.p0(i64 4, ptr %22) #6
  %42 = load i32, ptr %35, align 4, !tbaa !23
  store i32 %42, ptr %22, align 4, !tbaa !23
  call void @llvm.lifetime.start.p0(i64 4, ptr %23) #6
  %43 = load i32, ptr %22, align 4, !tbaa !23
  %44 = sub nsw i32 %43, 0
  %45 = sdiv i32 %44, 1
  %46 = sub nsw i32 %45, 1
  store i32 %46, ptr %23, align 4, !tbaa !23
  call void @llvm.lifetime.start.p0(i64 4, ptr %24) #6
  store i32 0, ptr %24, align 4, !tbaa !23
  call void @llvm.lifetime.end.p0(i64 4, ptr %24) #6
  %47 = load i32, ptr %22, align 4, !tbaa !23
  %48 = icmp slt i32 0, %47
  br i1 %48, label %49, label %117

49:                                               ; preds = %9
  call void @llvm.lifetime.start.p0(i64 4, ptr %25) #6
  store i32 0, ptr %25, align 4, !tbaa !23
  call void @llvm.lifetime.start.p0(i64 4, ptr %26) #6
  %50 = load i32, ptr %23, align 4, !tbaa !23
  store i32 %50, ptr %26, align 4, !tbaa !23
  call void @llvm.lifetime.start.p0(i64 4, ptr %27) #6
  store i32 1, ptr %27, align 4, !tbaa !23
  call void @llvm.lifetime.start.p0(i64 4, ptr %28) #6
  store i32 0, ptr %28, align 4, !tbaa !23
  call void @llvm.lifetime.start.p0(i64 4, ptr %29) #6
  %51 = load ptr, ptr %10, align 8
  %52 = load i32, ptr %51, align 4, !tbaa !23
  call void @__kmpc_for_static_init_4(ptr @1, i32 %52, i32 34, ptr %28, ptr %25, ptr %26, ptr %27, i32 1, i32 1)
  %53 = load i32, ptr %26, align 4, !tbaa !23
  %54 = load i32, ptr %23, align 4, !tbaa !23
  %55 = icmp sgt i32 %53, %54
  br i1 %55, label %56, label %58

56:                                               ; preds = %49
  %57 = load i32, ptr %23, align 4, !tbaa !23
  br label %60

58:                                               ; preds = %49
  %59 = load i32, ptr %26, align 4, !tbaa !23
  br label %60

60:                                               ; preds = %58, %56
  %61 = phi i32 [ %57, %56 ], [ %59, %58 ]
  store i32 %61, ptr %26, align 4, !tbaa !23
  %62 = load i32, ptr %25, align 4, !tbaa !23
  store i32 %62, ptr %21, align 4, !tbaa !23
  br label %63

63:                                               ; preds = %110, %60
  %64 = load i32, ptr %21, align 4, !tbaa !23
  %65 = load i32, ptr %26, align 4, !tbaa !23
  %66 = icmp sle i32 %64, %65
  br i1 %66, label %68, label %67

67:                                               ; preds = %63
  br label %113

68:                                               ; preds = %63
  %69 = load i32, ptr %21, align 4, !tbaa !23
  %70 = mul nsw i32 %69, 1
  %71 = add nsw i32 0, %70
  store i32 %71, ptr %29, align 4, !tbaa !23
  call void @llvm.lifetime.start.p0(i64 4, ptr %30) #6
  %72 = load i32, ptr %29, align 4, !tbaa !23
  %73 = load i32, ptr %36, align 4, !tbaa !23
  %74 = mul nsw i32 %72, %73
  store i32 %74, ptr %30, align 4, !tbaa !23
  call void @llvm.lifetime.start.p0(i64 8, ptr %31) #6
  %75 = load ptr, ptr %19, align 8, !tbaa !13
  %76 = invoke noundef ptr @_ZNK4ncnn3MatcvPKT_IiEEv(ptr noundef nonnull align 8 dereferenceable(72) %75)
          to label %77 unwind label %118

77:                                               ; preds = %68
  %78 = load i32, ptr %30, align 4, !tbaa !23
  %79 = load i32, ptr %38, align 4, !tbaa !23
  %80 = mul nsw i32 %78, %79
  %81 = sext i32 %80 to i64
  %82 = getelementptr inbounds i32, ptr %76, i64 %81
  store ptr %82, ptr %31, align 8, !tbaa !47
  call void @llvm.lifetime.start.p0(i64 8, ptr %32) #6
  %83 = load ptr, ptr %20, align 8, !tbaa !13
  %84 = invoke noundef ptr @_ZN4ncnn3MatcvPT_IaEEv(ptr noundef nonnull align 8 dereferenceable(72) %83)
          to label %85 unwind label %118

85:                                               ; preds = %77
  %86 = load i32, ptr %30, align 4, !tbaa !23
  %87 = load i32, ptr %38, align 4, !tbaa !23
  %88 = mul nsw i32 %86, %87
  %89 = sext i32 %88 to i64
  %90 = getelementptr inbounds i8, ptr %84, i64 %89
  store ptr %90, ptr %32, align 8, !tbaa !48
  call void @llvm.lifetime.start.p0(i64 4, ptr %33) #6
  call void @llvm.lifetime.start.p0(i64 4, ptr %34) #6
  %91 = load i32, ptr %40, align 4, !tbaa !23
  %92 = load i32, ptr %30, align 4, !tbaa !23
  %93 = sub nsw i32 %91, %92
  store i32 %93, ptr %34, align 4, !tbaa !23
  %94 = invoke noundef nonnull align 4 dereferenceable(4) ptr @_ZSt3minIiERKT_S2_S2_(ptr noundef nonnull align 4 dereferenceable(4) %34, ptr noundef nonnull align 4 dereferenceable(4) %36)
          to label %95 unwind label %118

95:                                               ; preds = %85
  %96 = load i32, ptr %94, align 4, !tbaa !23
  %97 = load i32, ptr %38, align 4, !tbaa !23
  %98 = mul nsw i32 %96, %97
  call void @llvm.lifetime.end.p0(i64 4, ptr %34) #6
  store i32 %98, ptr %33, align 4, !tbaa !23
  %99 = load ptr, ptr %31, align 8, !tbaa !47
  %100 = load ptr, ptr %32, align 8, !tbaa !48
  %101 = getelementptr inbounds nuw %"class.ncnn::Requantize", ptr %41, i32 0, i32 6
  %102 = getelementptr inbounds nuw %"class.ncnn::Requantize", ptr %41, i32 0, i32 8
  %103 = getelementptr inbounds nuw %"class.ncnn::Requantize", ptr %41, i32 0, i32 7
  %104 = getelementptr inbounds nuw %"class.ncnn::Requantize", ptr %41, i32 0, i32 4
  %105 = load i32, ptr %104, align 4, !tbaa !49
  %106 = getelementptr inbounds nuw %"class.ncnn::Requantize", ptr %41, i32 0, i32 5
  %107 = load i32, ptr %33, align 4, !tbaa !23
  invoke void @_ZN4ncnnL10requantizeEPKiPaRKNS_3MatES5_S5_iS5_ii(ptr noundef %99, ptr noundef %100, ptr noundef nonnull align 8 dereferenceable(72) %101, ptr noundef nonnull align 8 dereferenceable(72) %102, ptr noundef nonnull align 8 dereferenceable(72) %103, i32 noundef %105, ptr noundef nonnull align 8 dereferenceable(72) %106, i32 noundef %107, i32 noundef 1)
          to label %108 unwind label %118

108:                                              ; preds = %95
  call void @llvm.lifetime.end.p0(i64 4, ptr %33) #6
  call void @llvm.lifetime.end.p0(i64 8, ptr %32) #6
  call void @llvm.lifetime.end.p0(i64 8, ptr %31) #6
  call void @llvm.lifetime.end.p0(i64 4, ptr %30) #6
  br label %109

109:                                              ; preds = %108
  br label %110

110:                                              ; preds = %109
  %111 = load i32, ptr %21, align 4, !tbaa !23
  %112 = add nsw i32 %111, 1
  store i32 %112, ptr %21, align 4, !tbaa !23
  br label %63

113:                                              ; preds = %67
  br label %114

114:                                              ; preds = %113
  %115 = load ptr, ptr %10, align 8
  %116 = load i32, ptr %115, align 4, !tbaa !23
  call void @__kmpc_for_static_fini(ptr @1, i32 %116)
  call void @llvm.lifetime.end.p0(i64 4, ptr %29) #6
  call void @llvm.lifetime.end.p0(i64 4, ptr %28) #6
  call void @llvm.lifetime.end.p0(i64 4, ptr %27) #6
  call void @llvm.lifetime.end.p0(i64 4, ptr %26) #6
  call void @llvm.lifetime.end.p0(i64 4, ptr %25) #6
  br label %117

117:                                              ; preds = %114, %9
  call void @llvm.lifetime.end.p0(i64 4, ptr %23) #6
  call void @llvm.lifetime.end.p0(i64 4, ptr %22) #6
  call void @llvm.lifetime.end.p0(i64 4, ptr %21) #6
  ret void

118:                                              ; preds = %95, %85, %77, %68
  %119 = landingpad { ptr, i32 }
          catch ptr null
  %120 = extractvalue { ptr, i32 } %119, 0
  call void @__clang_call_terminate(ptr %120) #26
  unreachable
}