; Function Attrs: alwaysinline norecurse nounwind uwtable
define internal void @_ZNK4ncnn21Requantize_x86_avx5127forwardERKNS_3MatERS1_RKNS_6OptionE.omp_outlined(ptr noalias noundef readonly captures(none) %0, ptr noalias readnone captures(none) %1, ptr noundef nonnull readonly align 4 captures(none) dereferenceable(4) %2, ptr noundef nonnull readonly align 4 captures(none) dereferenceable(4) %3, ptr noundef nonnull readonly align 8 captures(none) dereferenceable(72) %4, ptr noundef nonnull readonly align 4 captures(none) dereferenceable(4) %5, ptr noundef nonnull readonly align 8 captures(none) dereferenceable(72) %6, ptr noundef nonnull readonly align 4 captures(none) dereferenceable(4) %7, ptr noundef readonly captures(none) %8) #4 personality ptr @__gxx_personality_v0 {
  %10 = alloca i32, align 4
  %11 = alloca i32, align 4
  %12 = alloca i32, align 4
  %13 = alloca i32, align 4
  %14 = load i32, ptr %2, align 4, !tbaa !20
  %15 = icmp sgt i32 %14, 0
  br i1 %15, label %16, label %46

16:                                               ; preds = %9
  %17 = add nsw i32 %14, -1
  call void @llvm.lifetime.start.p0(i64 4, ptr nonnull %10) #5
  store i32 0, ptr %10, align 4, !tbaa !20
  call void @llvm.lifetime.start.p0(i64 4, ptr nonnull %11) #5
  store i32 %17, ptr %11, align 4, !tbaa !20
  call void @llvm.lifetime.start.p0(i64 4, ptr nonnull %12) #5
  store i32 1, ptr %12, align 4, !tbaa !20
  call void @llvm.lifetime.start.p0(i64 4, ptr nonnull %13) #5
  store i32 0, ptr %13, align 4, !tbaa !20
  %18 = load i32, ptr %0, align 4, !tbaa !20
  call void @__kmpc_for_static_init_4(ptr nonnull @1, i32 %18, i32 34, ptr nonnull %13, ptr nonnull %10, ptr nonnull %11, ptr nonnull %12, i32 1, i32 1)
  %19 = load i32, ptr %11, align 4, !tbaa !20
  %20 = call i32 @llvm.smin.i32(i32 %19, i32 %17)
  store i32 %20, ptr %11, align 4, !tbaa !20
  %21 = load i32, ptr %10, align 4, !tbaa !20
  %.not31 = icmp sgt i32 %21, %20
  br i1 %.not31, label %._crit_edge, label %.lr.ph

.lr.ph:                                           ; preds = %16
  %22 = getelementptr inbounds nuw i8, ptr %8, i64 296
  %23 = getelementptr inbounds nuw i8, ptr %8, i64 440
  %24 = getelementptr inbounds nuw i8, ptr %8, i64 368
  %25 = getelementptr inbounds nuw i8, ptr %8, i64 220
  %26 = getelementptr inbounds nuw i8, ptr %8, i64 224
  %27 = getelementptr i8, ptr %8, i64 340
  %28 = getelementptr i8, ptr %8, i64 484
  %29 = getelementptr i8, ptr %8, i64 412
  br label %30

30:                                               ; preds = %.lr.ph, %30
  %.032 = phi i32 [ %21, %.lr.ph ], [ %44, %30 ]
  %31 = load i32, ptr %3, align 4, !tbaa !20
  %32 = mul nsw i32 %31, %.032
  %33 = load ptr, ptr %4, align 8, !tbaa !16
  %34 = load i32, ptr %5, align 4, !tbaa !20
  %35 = mul nsw i32 %34, %32
  %36 = sext i32 %35 to i64
  %37 = getelementptr inbounds i32, ptr %33, i64 %36
  %38 = load ptr, ptr %6, align 8, !tbaa !16
  %39 = getelementptr inbounds i8, ptr %38, i64 %36
  %40 = load i32, ptr %7, align 4, !tbaa !20
  %41 = sub nsw i32 %40, %32
  %.sroa.speculated = call i32 @llvm.smin.i32(i32 %31, i32 %41)
  %42 = mul nsw i32 %.sroa.speculated, %34
  %43 = load i32, ptr %25, align 4, !tbaa !42
  %.val = load ptr, ptr %22, align 8, !tbaa !16
  %.val25 = load i32, ptr %27, align 4, !tbaa !19
  %.val26 = load ptr, ptr %23, align 8
  %.val27 = load i32, ptr %28, align 4, !tbaa !19
  %.val28 = load ptr, ptr %24, align 8
  %.val29 = load i32, ptr %29, align 4, !tbaa !19
  call fastcc void @_ZN4ncnnL10requantizeEPKiPaRKNS_3MatES5_S5_iS5_ii(ptr noundef %37, ptr noundef %39, ptr %.val, i32 %.val25, ptr %.val26, i32 %.val27, ptr %.val28, i32 %.val29, i32 noundef %43, ptr noundef nonnull align 8 dereferenceable(72) %26, i32 noundef %42, i32 noundef 1)
  %44 = add nsw i32 %.032, 1
  %45 = load i32, ptr %11, align 4, !tbaa !20
  %.not.not = icmp slt i32 %.032, %45
  br i1 %.not.not, label %30, label %._crit_edge

._crit_edge:                                      ; preds = %30, %16
  call void @__kmpc_for_static_fini(ptr nonnull @1, i32 %18)
  call void @llvm.lifetime.end.p0(i64 4, ptr nonnull %13) #5
  call void @llvm.lifetime.end.p0(i64 4, ptr nonnull %12) #5
  call void @llvm.lifetime.end.p0(i64 4, ptr nonnull %11) #5
  call void @llvm.lifetime.end.p0(i64 4, ptr nonnull %10) #5
  br label %46

46:                                               ; preds = %._crit_edge, %9
  ret void
}